target datalayout = "e-m:e-p270:32:32-p271:32:32-p272:64:64-i64:64-i128:128-f80:128-n8:16:32:64-S128"
target triple = "x86_64-pc-linux-gnu"

%struct.ruby_glob_funcs_t = type { ptr, ptr }
%struct.glob_args = type { ptr, ptr, ptr, i64, i64, ptr }

@rb_glob_funcs = internal constant %struct.ruby_glob_funcs_t { ptr @rb_glob_caller, ptr @rb_glob_error }, align 8

; Function Attrs: nounwind sspstrong uwtable
define dso_local void @rb_glob(ptr noundef nonnull %0, ptr noundef nonnull %1, i64 noundef %2) #0 {
  %4 = alloca ptr, align 8
  %5 = alloca ptr, align 8
  %6 = alloca i64, align 8
  %7 = alloca %struct.glob_args, align 8
  %8 = alloca i32, align 4
  store ptr %0, ptr %4, align 8, !tbaa !11
  store ptr %1, ptr %5, align 8, !tbaa !14
  store i64 %2, ptr %6, align 8, !tbaa !7
  call void @llvm.lifetime.start.p0(i64 48, ptr %7) #26
  call void @llvm.lifetime.start.p0(i64 4, ptr %8) #26
  %9 = load ptr, ptr %5, align 8, !tbaa !14
  %10 = getelementptr inbounds nuw %struct.glob_args, ptr %7, i32 0, i32 0
  store ptr %9, ptr %10, align 8, !tbaa !35
  %11 = load i64, ptr %6, align 8, !tbaa !7
  %12 = getelementptr inbounds nuw %struct.glob_args, ptr %7, i32 0, i32 4
  store i64 %11, ptr %12, align 8, !tbaa !37
  %13 = call nonnull ptr @rb_ascii8bit_encoding()
  %14 = getelementptr inbounds nuw %struct.glob_args, ptr %7, i32 0, i32 5
  store ptr %13, ptr %14, align 8, !tbaa !38
  %15 = load ptr, ptr %4, align 8, !tbaa !11
  %16 = ptrtoint ptr %7 to i64
  %17 = getelementptr inbounds nuw %struct.glob_args, ptr %7, i32 0, i32 5
  %18 = load ptr, ptr %17, align 8, !tbaa !38
  %19 = call i32 @ruby_glob0(ptr noundef %15, i32 noundef -100, ptr noundef null, i32 noundef -2147483648, ptr noundef @rb_glob_funcs, i64 noundef %16, ptr noundef %18)
  store i32 %19, ptr %8, align 4, !tbaa !21
  %20 = load i32, ptr %8, align 4, !tbaa !21
  %21 = icmp ne i32 %20, 0
  br i1 %21, label %22, label %31

22:                                               ; preds = %3
  %23 = load i32, ptr %8, align 4, !tbaa !21
  %24 = icmp eq i32 %23, -1
  br i1 %24, label %25, label %27

25:                                               ; preds = %22
  call void @rb_memerror() #29
  unreachable

26:                                               ; No predecessors!
  br label %30

27:                                               ; preds = %22
  %28 = load i32, ptr %8, align 4, !tbaa !21
  call void @rb_jump_tag(i32 noundef %28) #30
  unreachable

29:                                               ; No predecessors!
  br label %30

30:                                               ; preds = %29, %26
  br label %31

31:                                               ; preds = %30, %3
  call void @llvm.lifetime.end.p0(i64 4, ptr %8) #26
  call void @llvm.lifetime.end.p0(i64 48, ptr %7) #26
  ret void
}