; Function Attrs: nounwind sspstrong uwtable
define dso_local void @rb_glob(ptr noundef nonnull %0, ptr noundef nonnull %1, i64 noundef %2) local_unnamed_addr #0 {
  %4 = alloca %struct.glob_args, align 8
  call void @llvm.lifetime.start.p0(i64 48, ptr nonnull %4) #22
  store ptr %1, ptr %4, align 8, !tbaa !35
  %5 = getelementptr inbounds nuw i8, ptr %4, i64 32
  store i64 %2, ptr %5, align 8, !tbaa !38
  %6 = tail call nonnull ptr @rb_ascii8bit_encoding() #22
  %7 = getelementptr inbounds nuw i8, ptr %4, i64 40
  store ptr %6, ptr %7, align 8, !tbaa !39
  %8 = ptrtoint ptr %4 to i64
  %9 = call fastcc i32 @ruby_glob0(ptr noundef nonnull %0, i32 noundef -100, ptr noundef null, i32 noundef -2147483648, ptr noundef nonnull @rb_glob_funcs, i64 noundef %8, ptr noundef nonnull %6)
  switch i32 %9, label %11 [
    i32 0, label %12
    i32 -1, label %10
  ]

10:                                               ; preds = %3
  call void @rb_memerror() #24
  unreachable

11:                                               ; preds = %3
  call void @rb_jump_tag(i32 noundef %9) #26
  unreachable

12:                                               ; preds = %3
  call void @llvm.lifetime.end.p0(i64 48, ptr nonnull %4) #22
  ret void
}